target datalayout = "e-m:e-p270:32:32-p271:32:32-p272:64:64-i64:64-i128:128-f80:128-n8:16:32:64-S128"
target triple = "x86_64-pc-linux-gnu"

%struct._packet_info = type { ptr, ptr, i32, i32, %struct.nstime_t, %struct.nstime_t, %struct.nstime_t, i32, ptr, ptr, ptr, ptr, %struct._address, %struct._address, %struct._address, %struct._address, %struct._address, %struct._address, i32, ptr, i32, %struct.anon, i32, i32, i32, i32, ptr, i32, ptr, ptr, i16, i16, i32, i32, i16, i32, i32, ptr, ptr, ptr, i8, i8, i16, i16, i16, i32, i16, i16, ptr, ptr, ptr, ptr, ptr, i32 }
%struct.nstime_t = type { i64, i32 }
%struct._address = type { i32, i32, ptr, ptr }
%struct.anon = type { i8, [3 x i8] }

@hf_zbee_zdp_ext_addr = external global i32, align 4
@.str = private unnamed_addr constant [14 x i8] c", Address: %s\00", align 1
@hf_zbee_zdp_nwk_addr = external global i32, align 4
@ett_zbee_zdp_power = external global i32, align 4

; Function Attrs: nounwind uwtable
define hidden void @dissect_zbee_zdp_req_store_power_desc(ptr noundef %0, ptr noundef %1, ptr noundef %2) #0 {
  %4 = alloca ptr, align 8
  %5 = alloca ptr, align 8
  %6 = alloca ptr, align 8
  %7 = alloca i32, align 4
  %8 = alloca i64, align 8
  store ptr %0, ptr %4, align 8
  store ptr %1, ptr %5, align 8
  store ptr %2, ptr %6, align 8
  store i32 0, ptr %7, align 4
  %9 = load ptr, ptr %6, align 8
  %10 = load i32, ptr @hf_zbee_zdp_nwk_addr, align 4
  %11 = load ptr, ptr %4, align 8
  %12 = load i32, ptr %7, align 4
  %13 = call ptr @proto_tree_add_item(ptr noundef %9, i32 noundef %10, ptr noundef %11, i32 noundef %12, i32 noundef 2, i32 noundef -2147483648)
  %14 = load i32, ptr %7, align 4
  %15 = add i32 %14, 2
  store i32 %15, ptr %7, align 4
  %16 = load ptr, ptr %6, align 8
  %17 = load i32, ptr @hf_zbee_zdp_ext_addr, align 4
  %18 = load ptr, ptr %4, align 8
  %19 = call i64 @zbee_parse_eui64(ptr noundef %16, i32 noundef %17, ptr noundef %18, ptr noundef %7, i32 noundef 8, ptr noundef null)
  store i64 %19, ptr %8, align 8
  %20 = load ptr, ptr %6, align 8
  %21 = load i32, ptr @ett_zbee_zdp_power, align 4
  %22 = load ptr, ptr %4, align 8
  call void @zdp_parse_power_desc(ptr noundef %20, i32 noundef %21, ptr noundef %22, ptr noundef %7)
  %23 = load ptr, ptr %6, align 8
  %24 = load ptr, ptr %5, align 8
  %25 = load ptr, ptr %5, align 8
  %26 = getelementptr inbounds %struct._packet_info, ptr %25, i32 0, i32 50
  %27 = load ptr, ptr %26, align 8
  %28 = load i64, ptr %8, align 8
  %29 = call ptr @eui64_to_display(ptr noundef %27, i64 noundef %28)
  call void (ptr, ptr, ptr, ...) @zbee_append_info(ptr noundef %23, ptr noundef %24, ptr noundef @.str, ptr noundef %29)
  %30 = load ptr, ptr %4, align 8
  %31 = load i32, ptr %7, align 4
  %32 = load ptr, ptr %5, align 8
  %33 = load ptr, ptr %6, align 8
  call void @zdp_dump_excess(ptr noundef %30, i32 noundef %31, ptr noundef %32, ptr noundef %33)
  ret void
}