; Function Attrs: nounwind uwtable
define hidden void @dissect_zbee_zdp_req_store_power_desc(ptr noundef %0, ptr noundef %1, ptr noundef %2) local_unnamed_addr #0 {
  %4 = alloca i32, align 4
  %5 = load i32, ptr @hf_zbee_zdp_nwk_addr, align 4
  %6 = tail call ptr @proto_tree_add_item(ptr noundef %2, i32 noundef %5, ptr noundef %0, i32 noundef 0, i32 noundef 2, i32 noundef -2147483648) #2
  store i32 2, ptr %4, align 4
  %7 = load i32, ptr @hf_zbee_zdp_ext_addr, align 4
  %8 = call i64 @zbee_parse_eui64(ptr noundef %2, i32 noundef %7, ptr noundef %0, ptr noundef nonnull %4, i32 noundef 8, ptr noundef null) #2
  %9 = load i32, ptr @ett_zbee_zdp_power, align 4
  call void @zdp_parse_power_desc(ptr noundef %2, i32 noundef %9, ptr noundef %0, ptr noundef nonnull %4) #2
  %10 = getelementptr inbounds nuw i8, ptr %1, i64 408
  %11 = load ptr, ptr %10, align 8
  %12 = call ptr @eui64_to_display(ptr noundef %11, i64 noundef %8) #2
  call void (ptr, ptr, ptr, ...) @zbee_append_info(ptr noundef %2, ptr noundef %1, ptr noundef nonnull @.str, ptr noundef %12) #2
  %13 = load i32, ptr %4, align 4
  call void @zdp_dump_excess(ptr noundef %0, i32 noundef %13, ptr noundef %1, ptr noundef %2) #2
  ret void
}